target datalayout = "e-m:e-p270:32:32-p271:32:32-p272:64:64-i64:64-i128:128-f80:128-n8:16:32:64-S128"
target triple = "x86_64-pc-linux-gnu"

%struct.client = type { i64, i64, ptr, i8, i8, i8, i8, i32, ptr, ptr, ptr, ptr, ptr, i64, i64, i32, ptr, i32, i32, ptr, i64, ptr, ptr, ptr, ptr, ptr, i32, i32, i64, ptr, i64, ptr, i64, i64, i64, i32, ptr, i64, i64, i32, i32, i32, i32, i64, i64, ptr, i64, i64, i64, i64, i64, i64, i64, i64, [41 x i8], i32, ptr, i32, i32, i64, %struct.multiState, %struct.blockingState, i64, ptr, ptr, ptr, ptr, ptr, ptr, ptr, ptr, ptr, ptr, ptr, ptr, ptr, ptr, i64, ptr, i64, i32, ptr, ptr, ptr, i64, %struct.listNode, i64, i64, i32, i64, ptr }
%struct.multiState = type { ptr, i32, i32, i32, i64, i32 }
%struct.blockingState = type { i32, i64, i32, ptr, i32, i32, i64, ptr, ptr, i64 }
%struct.listNode = type { ptr, ptr, ptr }

; Function Attrs: nounwind uwtable
define dso_local i64 @pubsubMemOverhead(ptr noundef %0) #0 {
  %2 = alloca ptr, align 8
  %3 = alloca i64, align 8
  store ptr %0, ptr %2, align 8, !tbaa !5
  call void @llvm.lifetime.start.p0(i64 8, ptr %3) #8
  %4 = load ptr, ptr %2, align 8, !tbaa !5
  %5 = getelementptr inbounds nuw %struct.client, ptr %4, i32 0, i32 65
  %6 = load ptr, ptr %5, align 8, !tbaa !31
  %7 = call i64 @dictMemUsage(ptr noundef %6)
  store i64 %7, ptr %3, align 8, !tbaa !30
  %8 = load ptr, ptr %2, align 8, !tbaa !5
  %9 = getelementptr inbounds nuw %struct.client, ptr %8, i32 0, i32 64
  %10 = load ptr, ptr %9, align 8, !tbaa !10
  %11 = call i64 @dictMemUsage(ptr noundef %10)
  %12 = load i64, ptr %3, align 8, !tbaa !30
  %13 = add i64 %12, %11
  store i64 %13, ptr %3, align 8, !tbaa !30
  %14 = load ptr, ptr %2, align 8, !tbaa !5
  %15 = getelementptr inbounds nuw %struct.client, ptr %14, i32 0, i32 66
  %16 = load ptr, ptr %15, align 8, !tbaa !32
  %17 = call i64 @dictMemUsage(ptr noundef %16)
  %18 = load i64, ptr %3, align 8, !tbaa !30
  %19 = add i64 %18, %17
  store i64 %19, ptr %3, align 8, !tbaa !30
  %20 = load i64, ptr %3, align 8, !tbaa !30
  call void @llvm.lifetime.end.p0(i64 8, ptr %3) #8
  ret i64 %20
}