; Function Attrs: nounwind uwtable
define dso_local i64 @pubsubMemOverhead(ptr noundef readonly captures(none) %0) local_unnamed_addr #2 {
  %2 = getelementptr inbounds nuw i8, ptr %0, i64 576
  %3 = load ptr, ptr %2, align 8, !tbaa !29
  %4 = tail call i64 @dictMemUsage(ptr noundef %3) #9
  %5 = getelementptr inbounds nuw i8, ptr %0, i64 568
  %6 = load ptr, ptr %5, align 8, !tbaa !5
  %7 = tail call i64 @dictMemUsage(ptr noundef %6) #9
  %8 = add i64 %7, %4
  %9 = getelementptr inbounds nuw i8, ptr %0, i64 584
  %10 = load ptr, ptr %9, align 8, !tbaa !30
  %11 = tail call i64 @dictMemUsage(ptr noundef %10) #9
  %12 = add i64 %8, %11
  ret i64 %12
}